; Function Attrs: mustprogress nounwind uwtable
define hidden void @_ZN17opencv_tensorflow11TensorProto18clear_tensor_shapeEv(ptr nocapture noundef nonnull align 8 dereferenceable(224) %0) local_unnamed_addr #5 align 2 {
  %2 = getelementptr inbounds i8, ptr %0, i64 8
  %3 = load i64, ptr %2, align 8
  %4 = and i64 %3, 1
  %.not.i = icmp eq i64 %4, 0
  %5 = and i64 %3, -4
  %6 = inttoptr i64 %5 to ptr
  br i1 %.not.i, label %_ZNK6google8protobuf11MessageLite21GetArenaForAllocationEv.exit, label %7

7:                                                ; preds = %1
  %8 = load ptr, ptr %6, align 8
  br label %_ZNK6google8protobuf11MessageLite21GetArenaForAllocationEv.exit

_ZNK6google8protobuf11MessageLite21GetArenaForAllocationEv.exit: ; preds = %1, %7
  %.0.i = phi ptr [ %8, %7 ], [ %6, %1 ]
  %9 = icmp eq ptr %.0.i, null
  br i1 %9, label %10, label %14

10:                                               ; preds = %_ZNK6google8protobuf11MessageLite21GetArenaForAllocationEv.exit
  %11 = getelementptr inbounds i8, ptr %0, i64 200
  %12 = load ptr, ptr %11, align 8
  %.not = icmp eq ptr %12, null
  br i1 %.not, label %14, label %13

13:                                               ; preds = %10
  tail call void @_ZN17opencv_tensorflow16TensorShapeProtoD1Ev(ptr noundef nonnull align 8 dereferenceable(48) %12) #16
  tail call void @_ZdlPv(ptr noundef nonnull %12) #17
  br label %14

14:                                               ; preds = %13, %10, %_ZNK6google8protobuf11MessageLite21GetArenaForAllocationEv.exit
  %15 = getelementptr inbounds i8, ptr %0, i64 200
  store ptr null, ptr %15, align 8
  ret void
}